target datalayout = "e-m:e-p270:32:32-p271:32:32-p272:64:64-i64:64-i128:128-f80:128-n8:16:32:64-S128"
target triple = "x86_64-pc-linux-gnu"

%"class.absl::base_internal::SpinLock" = type { %"struct.std::atomic.0" }
%"struct.std::atomic.0" = type { %"struct.std::__atomic_base.1" }
%"struct.std::__atomic_base.1" = type { i32 }
%class.anon = type { i8 }
%"class.absl::once_flag" = type { %"struct.std::atomic.0" }

@_ZZN4absl13base_internal8SpinLock8SpinLoopEvE24init_adaptive_spin_count = internal global { { i32 } } zeroinitializer, align 4
@_ZZN4absl13base_internal8SpinLock8SpinLoopEvE19adaptive_spin_count = internal global i32 0, align 4

; Function Attrs: mustprogress nounwind uwtable
define linkonce_odr dso_local noundef i32 @_ZStanSt12memory_orderSt23__memory_order_modifier(i32 noundef %0, i32 noundef %1) #1 comdat {
  %3 = alloca i32, align 4
  %4 = alloca i32, align 4
  store i32 %0, ptr %3, align 4, !tbaa !26
  store i32 %1, ptr %4, align 4, !tbaa !46
  %5 = load i32, ptr %3, align 4, !tbaa !26
  %6 = load i32, ptr %4, align 4, !tbaa !46
  %7 = and i32 %5, %6
  ret i32 %7
}

; Function Attrs: inlinehint mustprogress nounwind uwtable
define linkonce_odr dso_local noundef ptr @_ZN4absl13base_internal11ControlWordEPNS_9once_flagE(ptr noundef %0) #6 comdat {
  %2 = alloca ptr, align 8
  store ptr %0, ptr %2, align 8, !tbaa !22
  %3 = load ptr, ptr %2, align 8, !tbaa !22
  %4 = getelementptr inbounds nuw %"class.absl::once_flag", ptr %3, i32 0, i32 0
  ret ptr %4
}

; Function Attrs: alwaysinline mustprogress nounwind uwtable
define linkonce_odr dso_local noundef i32 @_ZNKSt13__atomic_baseIjE4loadESt12memory_order(ptr noundef nonnull align 4 dereferenceable(4) %0, i32 noundef %1) #3 comdat align 2 {
  %3 = alloca ptr, align 8
  %4 = alloca i32, align 4
  %5 = alloca i32, align 4
  %6 = alloca i32, align 4
  store ptr %0, ptr %3, align 8, !tbaa !24
  store i32 %1, ptr %4, align 4, !tbaa !26
  %7 = load ptr, ptr %3, align 8
  call void @llvm.lifetime.start.p0(i64 4, ptr %5) #10
  %8 = load i32, ptr %4, align 4, !tbaa !26
  %9 = call noundef i32 @_ZStanSt12memory_orderSt23__memory_order_modifier(i32 noundef %8, i32 noundef 65535)
  store i32 %9, ptr %5, align 4, !tbaa !26
  br label %10

10:                                               ; preds = %2
  br label %11

11:                                               ; preds = %10
  br label %12

12:                                               ; preds = %11
  br label %13

13:                                               ; preds = %12
  br label %14

14:                                               ; preds = %13
  br label %15

15:                                               ; preds = %14
  %16 = getelementptr inbounds nuw %"struct.std::__atomic_base.1", ptr %7, i32 0, i32 0
  %17 = load i32, ptr %4, align 4, !tbaa !26
  switch i32 %17, label %18 [
    i32 1, label %20
    i32 2, label %20
    i32 5, label %22
  ]

18:                                               ; preds = %15
  %19 = load atomic i32, ptr %16 monotonic, align 4
  store i32 %19, ptr %6, align 4
  br label %24

20:                                               ; preds = %15, %15
  %21 = load atomic i32, ptr %16 acquire, align 4
  store i32 %21, ptr %6, align 4
  br label %24

22:                                               ; preds = %15
  %23 = load atomic i32, ptr %16 seq_cst, align 4
  store i32 %23, ptr %6, align 4
  br label %24

24:                                               ; preds = %22, %20, %18
  %25 = load i32, ptr %6, align 4, !tbaa !18
  call void @llvm.lifetime.end.p0(i64 4, ptr %5) #10
  ret i32 %25
}

; Function Attrs: mustprogress uwtable
define internal void @"_ZN4absl13base_internal16LowLevelCallOnceIZNS0_8SpinLock8SpinLoopEvE3$_0JEEEvPNS_9once_flagEOT_DpOT0_"(ptr noundef %0, ptr noundef nonnull align 1 dereferenceable(1) %1) #0 {
  %3 = alloca ptr, align 8
  %4 = alloca ptr, align 8
  %5 = alloca ptr, align 8
  %6 = alloca i32, align 4
  store ptr %0, ptr %3, align 8, !tbaa !22
  store ptr %1, ptr %4, align 8, !tbaa !4
  call void @llvm.lifetime.start.p0(i64 8, ptr %5) #10
  %7 = load ptr, ptr %3, align 8, !tbaa !22
  %8 = call noundef ptr @_ZN4absl13base_internal11ControlWordEPNS_9once_flagE(ptr noundef %7)
  store ptr %8, ptr %5, align 8, !tbaa !16
  call void @llvm.lifetime.start.p0(i64 4, ptr %6) #10
  %9 = load ptr, ptr %5, align 8, !tbaa !16
  %10 = call noundef i32 @_ZNKSt13__atomic_baseIjE4loadESt12memory_order(ptr noundef nonnull align 4 dereferenceable(4) %9, i32 noundef 2) #10
  store i32 %10, ptr %6, align 4, !tbaa !18
  %11 = load i32, ptr %6, align 4, !tbaa !18
  %12 = icmp ne i32 %11, 221
  %13 = zext i1 %12 to i64
  %14 = call i64 @llvm.expect.i64(i64 %13, i64 0)
  %15 = icmp ne i64 %14, 0
  br i1 %15, label %16, label %19

16:                                               ; preds = %2
  %17 = load ptr, ptr %5, align 8, !tbaa !16
  %18 = load ptr, ptr %4, align 8, !tbaa !4
  call void @"_ZN4absl13base_internal12CallOnceImplIZNS0_8SpinLock8SpinLoopEvE3$_0JEEEvPSt6atomicIjENS0_14SchedulingModeEOT_DpOT0_"(ptr noundef %17, i32 noundef 0, ptr noundef nonnull align 1 dereferenceable(1) %18)
  br label %19

19:                                               ; preds = %16, %2
  call void @llvm.lifetime.end.p0(i64 4, ptr %6) #10
  call void @llvm.lifetime.end.p0(i64 8, ptr %5) #10
  ret void
}

; Function Attrs: mustprogress uwtable
define dso_local noundef i32 @_ZN4absl13base_internal8SpinLock8SpinLoopEv(ptr noundef nonnull align 4 dereferenceable(4) %0) #0 align 2 {
  %2 = alloca ptr, align 8
  %3 = alloca %class.anon, align 1
  %4 = alloca i32, align 4
  %5 = alloca i32, align 4
  store ptr %0, ptr %2, align 8, !tbaa !12
  %6 = load ptr, ptr %2, align 8
  call void @llvm.lifetime.start.p0(i64 1, ptr %3) #10
  call void @"_ZN4absl13base_internal16LowLevelCallOnceIZNS0_8SpinLock8SpinLoopEvE3$_0JEEEvPNS_9once_flagEOT_DpOT0_"(ptr noundef @_ZZN4absl13base_internal8SpinLock8SpinLoopEvE24init_adaptive_spin_count, ptr noundef nonnull align 1 dereferenceable(1) %3)
  call void @llvm.lifetime.end.p0(i64 1, ptr %3) #10
  call void @llvm.lifetime.start.p0(i64 4, ptr %4) #10
  %7 = load i32, ptr @_ZZN4absl13base_internal8SpinLock8SpinLoopEvE19adaptive_spin_count, align 4, !tbaa !18
  store i32 %7, ptr %4, align 4, !tbaa !18
  call void @llvm.lifetime.start.p0(i64 4, ptr %5) #10
  br label %8

8:                                                ; preds = %19, %1
  %9 = getelementptr inbounds nuw %"class.absl::base_internal::SpinLock", ptr %6, i32 0, i32 0
  %10 = call noundef i32 @_ZNKSt13__atomic_baseIjE4loadESt12memory_order(ptr noundef nonnull align 4 dereferenceable(4) %9, i32 noundef 0) #10
  store i32 %10, ptr %5, align 4, !tbaa !18
  br label %11

11:                                               ; preds = %8
  %12 = load i32, ptr %5, align 4, !tbaa !18
  %13 = and i32 %12, 1
  %14 = icmp ne i32 %13, 0
  br i1 %14, label %15, label %19

15:                                               ; preds = %11
  %16 = load i32, ptr %4, align 4, !tbaa !18
  %17 = add nsw i32 %16, -1
  store i32 %17, ptr %4, align 4, !tbaa !18
  %18 = icmp sgt i32 %17, 0
  br label %19

19:                                               ; preds = %15, %11
  %20 = phi i1 [ false, %11 ], [ %18, %15 ]
  br i1 %20, label %8, label %21, !llvm.loop !20

21:                                               ; preds = %19
  %22 = load i32, ptr %5, align 4, !tbaa !18
  call void @llvm.lifetime.end.p0(i64 4, ptr %5) #10
  call void @llvm.lifetime.end.p0(i64 4, ptr %4) #10
  ret i32 %22
}