; Function Attrs: mustprogress uwtable
define dso_local noundef i32 @_ZN4absl13base_internal8SpinLock8SpinLoopEv(ptr noundef nonnull readonly align 4 captures(none) dereferenceable(4) %0) local_unnamed_addr #2 align 2 {
  %2 = load atomic i32, ptr @_ZZN4absl13base_internal8SpinLock8SpinLoopEvE24init_adaptive_spin_count acquire, align 4
  %.not.i = icmp eq i32 %2, 221
  br i1 %.not.i, label %"_ZN4absl13base_internal16LowLevelCallOnceIZNS0_8SpinLock8SpinLoopEvE3$_0JEEEvPNS_9once_flagEOT_DpOT0_.exit", label %3, !prof !14

3:                                                ; preds = %1
  tail call fastcc void @"_ZN4absl13base_internal12CallOnceImplIZNS0_8SpinLock8SpinLoopEvE3$_0JEEEvPSt6atomicIjENS0_14SchedulingModeEOT_DpOT0_"(ptr noundef nonnull @_ZZN4absl13base_internal8SpinLock8SpinLoopEvE24init_adaptive_spin_count)
  br label %"_ZN4absl13base_internal16LowLevelCallOnceIZNS0_8SpinLock8SpinLoopEvE3$_0JEEEvPNS_9once_flagEOT_DpOT0_.exit"

"_ZN4absl13base_internal16LowLevelCallOnceIZNS0_8SpinLock8SpinLoopEvE3$_0JEEEvPNS_9once_flagEOT_DpOT0_.exit": ; preds = %1, %3
  %4 = load i32, ptr @_ZZN4absl13base_internal8SpinLock8SpinLoopEvE19adaptive_spin_count, align 4, !tbaa !15
  br label %5

5:                                                ; preds = %5, %"_ZN4absl13base_internal16LowLevelCallOnceIZNS0_8SpinLock8SpinLoopEvE3$_0JEEEvPNS_9once_flagEOT_DpOT0_.exit"
  %.0 = phi i32 [ %4, %"_ZN4absl13base_internal16LowLevelCallOnceIZNS0_8SpinLock8SpinLoopEvE3$_0JEEEvPNS_9once_flagEOT_DpOT0_.exit" ], [ %8, %5 ]
  %6 = load atomic i32, ptr %0 monotonic, align 4
  %7 = and i32 %6, 1
  %.not = icmp ne i32 %7, 0
  %8 = add nsw i32 %.0, -1
  %9 = icmp sgt i32 %.0, 1
  %or.cond = select i1 %.not, i1 %9, i1 false
  br i1 %or.cond, label %5, label %.critedge, !llvm.loop !16

.critedge:                                        ; preds = %5
  ret i32 %6
}